target datalayout = "e-m:e-p270:32:32-p271:32:32-p272:64:64-i64:64-i128:128-f80:128-n8:16:32:64-S128"
target triple = "x86_64-pc-linux-gnu"

%struct.evthread_lock_callbacks = type { i32, i32, ptr, ptr, ptr, ptr }
%struct.evbuffer = type { ptr, ptr, ptr, i64, i64, i64, i64, ptr, i8, i32, ptr, i32, %struct.event_callback, %struct.evbuffer_cb_queue, ptr }
%struct.event_callback = type { %struct.anon, i16, i8, i8, %union.anon, ptr }
%struct.anon = type { ptr, ptr }
%union.anon = type { ptr }
%struct.evbuffer_cb_queue = type { ptr }

@evthread_lock_fns_ = external global %struct.evthread_lock_callbacks, align 8

; Function Attrs: nounwind uwtable
define i32 @evbuffer_set_max_read(ptr noundef %0, i64 noundef %1) #0 {
  %3 = alloca i32, align 4
  %4 = alloca ptr, align 8
  %5 = alloca i64, align 8
  store ptr %0, ptr %4, align 8
  store i64 %1, ptr %5, align 8
  %6 = load i64, ptr %5, align 8
  %7 = icmp ugt i64 %6, 2147483647
  br i1 %7, label %8, label %9

8:                                                ; preds = %2
  store i32 -1, ptr %3, align 4
  br label %43

9:                                                ; preds = %2
  br label %10

10:                                               ; preds = %9
  br label %11

11:                                               ; preds = %10
  %12 = load ptr, ptr %4, align 8
  %13 = getelementptr inbounds nuw %struct.evbuffer, ptr %12, i32 0, i32 7
  %14 = load ptr, ptr %13, align 8
  %15 = icmp ne ptr %14, null
  br i1 %15, label %16, label %22

16:                                               ; preds = %11
  %17 = load ptr, ptr getelementptr inbounds nuw (%struct.evthread_lock_callbacks, ptr @evthread_lock_fns_, i32 0, i32 4), align 8
  %18 = load ptr, ptr %4, align 8
  %19 = getelementptr inbounds nuw %struct.evbuffer, ptr %18, i32 0, i32 7
  %20 = load ptr, ptr %19, align 8
  %21 = call i32 %17(i32 noundef 0, ptr noundef %20)
  br label %22

22:                                               ; preds = %16, %11
  br label %23

23:                                               ; preds = %22
  br label %24

24:                                               ; preds = %23
  %25 = load i64, ptr %5, align 8
  %26 = load ptr, ptr %4, align 8
  %27 = getelementptr inbounds nuw %struct.evbuffer, ptr %26, i32 0, i32 4
  store i64 %25, ptr %27, align 8
  br label %28

28:                                               ; preds = %24
  br label %29

29:                                               ; preds = %28
  %30 = load ptr, ptr %4, align 8
  %31 = getelementptr inbounds nuw %struct.evbuffer, ptr %30, i32 0, i32 7
  %32 = load ptr, ptr %31, align 8
  %33 = icmp ne ptr %32, null
  br i1 %33, label %34, label %40

34:                                               ; preds = %29
  %35 = load ptr, ptr getelementptr inbounds nuw (%struct.evthread_lock_callbacks, ptr @evthread_lock_fns_, i32 0, i32 5), align 8
  %36 = load ptr, ptr %4, align 8
  %37 = getelementptr inbounds nuw %struct.evbuffer, ptr %36, i32 0, i32 7
  %38 = load ptr, ptr %37, align 8
  %39 = call i32 %35(i32 noundef 0, ptr noundef %38)
  br label %40

40:                                               ; preds = %34, %29
  br label %41

41:                                               ; preds = %40
  br label %42

42:                                               ; preds = %41
  store i32 0, ptr %3, align 4
  br label %43

43:                                               ; preds = %42, %8
  %44 = load i32, ptr %3, align 4
  ret i32 %44
}