; Function Attrs: nounwind uwtable
define range(i32 -1, 1) i32 @evbuffer_set_max_read(ptr noundef captures(none) %0, i64 noundef %1) local_unnamed_addr #1 {
  %3 = icmp ugt i64 %1, 2147483647
  br i1 %3, label %15, label %4

4:                                                ; preds = %2
  %5 = getelementptr inbounds nuw i8, ptr %0, i64 56
  %6 = load ptr, ptr %5, align 8
  %.not = icmp eq ptr %6, null
  br i1 %.not, label %.thread, label %8

.thread:                                          ; preds = %4
  %7 = getelementptr inbounds nuw i8, ptr %0, i64 32
  store i64 %1, ptr %7, align 8
  br label %15

8:                                                ; preds = %4
  %9 = load ptr, ptr getelementptr inbounds nuw (i8, ptr @evthread_lock_fns_, i64 24), align 8
  %10 = tail call i32 %9(i32 noundef 0, ptr noundef nonnull %6) #16
  %.pr = load ptr, ptr %5, align 8
  %11 = getelementptr inbounds nuw i8, ptr %0, i64 32
  store i64 %1, ptr %11, align 8
  %.not10 = icmp eq ptr %.pr, null
  br i1 %.not10, label %15, label %12

12:                                               ; preds = %8
  %13 = load ptr, ptr getelementptr inbounds nuw (i8, ptr @evthread_lock_fns_, i64 32), align 8
  %14 = tail call i32 %13(i32 noundef 0, ptr noundef nonnull %.pr) #16
  br label %15

15:                                               ; preds = %.thread, %8, %12, %2
  %.0 = phi i32 [ -1, %2 ], [ 0, %12 ], [ 0, %8 ], [ 0, %.thread ]
  ret i32 %.0
}